; Function Attrs: mustprogress uwtable
define noundef double @_ZNK8QuantLib16CoxIngersollRoss1AEdd(ptr nocapture noundef nonnull readonly align 8 dereferenceable(120) %this, double noundef %t, double noundef %T) unnamed_addr #1 align 2 {
entry:
  %sigma_.i = getelementptr inbounds nuw i8, ptr %this, i64 104
  %0 = load ptr, ptr %sigma_.i, align 8, !tbaa !66
  %1 = load ptr, ptr %0, align 8, !tbaa !61
  %cmp.not.i.i.i = icmp eq ptr %1, null
  br i1 %cmp.not.i.i.i, label %cond.false.i.i.i, label %_ZNK8QuantLib16CoxIngersollRoss5sigmaEv.exit, !prof !71

cond.false.i.i.i:                                 ; preds = %entry
  tail call void @_ZN5boost16assertion_failedEPKcS1_S1_l(ptr noundef nonnull @.str.10, ptr noundef nonnull @__PRETTY_FUNCTION__._ZNK5boost10shared_ptrIN8QuantLib9Parameter4ImplEEptEv, ptr noundef nonnull @.str.11, i64 noundef 784)
  %.pre.i.i.i = load ptr, ptr %0, align 8, !tbaa !61
  br label %_ZNK8QuantLib16CoxIngersollRoss5sigmaEv.exit

_ZNK8QuantLib16CoxIngersollRoss5sigmaEv.exit:     ; preds = %entry, %cond.false.i.i.i
  %2 = phi ptr [ %1, %entry ], [ %.pre.i.i.i, %cond.false.i.i.i ]
  %params_.i.i = getelementptr inbounds nuw i8, ptr %0, i64 16
  %vtable.i.i = load ptr, ptr %2, align 8, !tbaa !14
  %vfn.i.i = getelementptr inbounds i8, ptr %vtable.i.i, i64 16
  %3 = load ptr, ptr %vfn.i.i, align 8
  %call2.i.i = tail call noundef double %3(ptr noundef nonnull align 8 dereferenceable(8) %2, ptr noundef nonnull align 8 dereferenceable(16) %params_.i.i, double noundef 0.000000e+00)
  %4 = load ptr, ptr %sigma_.i, align 8, !tbaa !66
  %5 = load ptr, ptr %4, align 8, !tbaa !61
  %cmp.not.i.i.i9 = icmp eq ptr %5, null
  br i1 %cmp.not.i.i.i9, label %cond.false.i.i.i14, label %_ZNK8QuantLib16CoxIngersollRoss5sigmaEv.exit16, !prof !71

cond.false.i.i.i14:                               ; preds = %_ZNK8QuantLib16CoxIngersollRoss5sigmaEv.exit
  tail call void @_ZN5boost16assertion_failedEPKcS1_S1_l(ptr noundef nonnull @.str.10, ptr noundef nonnull @__PRETTY_FUNCTION__._ZNK5boost10shared_ptrIN8QuantLib9Parameter4ImplEEptEv, ptr noundef nonnull @.str.11, i64 noundef 784)
  %.pre.i.i.i15 = load ptr, ptr %4, align 8, !tbaa !61
  br label %_ZNK8QuantLib16CoxIngersollRoss5sigmaEv.exit16

_ZNK8QuantLib16CoxIngersollRoss5sigmaEv.exit16:   ; preds = %_ZNK8QuantLib16CoxIngersollRoss5sigmaEv.exit, %cond.false.i.i.i14
  %6 = phi ptr [ %5, %_ZNK8QuantLib16CoxIngersollRoss5sigmaEv.exit ], [ %.pre.i.i.i15, %cond.false.i.i.i14 ]
  %params_.i.i10 = getelementptr inbounds nuw i8, ptr %4, i64 16
  %vtable.i.i11 = load ptr, ptr %6, align 8, !tbaa !14
  %vfn.i.i12 = getelementptr inbounds i8, ptr %vtable.i.i11, i64 16
  %7 = load ptr, ptr %vfn.i.i12, align 8
  %call2.i.i13 = tail call noundef double %7(ptr noundef nonnull align 8 dereferenceable(8) %6, ptr noundef nonnull align 8 dereferenceable(16) %params_.i.i10, double noundef 0.000000e+00)
  %mul = fmul double %call2.i.i, %call2.i.i13
  %k_.i = getelementptr inbounds nuw i8, ptr %this, i64 96
  %8 = load ptr, ptr %k_.i, align 8, !tbaa !65
  %9 = load ptr, ptr %8, align 8, !tbaa !61
  %cmp.not.i.i.i17 = icmp eq ptr %9, null
  br i1 %cmp.not.i.i.i17, label %cond.false.i.i.i22, label %_ZNK8QuantLib16CoxIngersollRoss1kEv.exit, !prof !71

cond.false.i.i.i22:                               ; preds = %_ZNK8QuantLib16CoxIngersollRoss5sigmaEv.exit16
  tail call void @_ZN5boost16assertion_failedEPKcS1_S1_l(ptr noundef nonnull @.str.10, ptr noundef nonnull @__PRETTY_FUNCTION__._ZNK5boost10shared_ptrIN8QuantLib9Parameter4ImplEEptEv, ptr noundef nonnull @.str.11, i64 noundef 784)
  %.pre.i.i.i23 = load ptr, ptr %8, align 8, !tbaa !61
  br label %_ZNK8QuantLib16CoxIngersollRoss1kEv.exit

_ZNK8QuantLib16CoxIngersollRoss1kEv.exit:         ; preds = %_ZNK8QuantLib16CoxIngersollRoss5sigmaEv.exit16, %cond.false.i.i.i22
  %10 = phi ptr [ %9, %_ZNK8QuantLib16CoxIngersollRoss5sigmaEv.exit16 ], [ %.pre.i.i.i23, %cond.false.i.i.i22 ]
  %params_.i.i18 = getelementptr inbounds nuw i8, ptr %8, i64 16
  %vtable.i.i19 = load ptr, ptr %10, align 8, !tbaa !14
  %vfn.i.i20 = getelementptr inbounds i8, ptr %vtable.i.i19, i64 16
  %11 = load ptr, ptr %vfn.i.i20, align 8
  %call2.i.i21 = tail call noundef double %11(ptr noundef nonnull align 8 dereferenceable(8) %10, ptr noundef nonnull align 8 dereferenceable(16) %params_.i.i18, double noundef 0.000000e+00)
  %12 = load ptr, ptr %k_.i, align 8, !tbaa !65
  %13 = load ptr, ptr %12, align 8, !tbaa !61
  %cmp.not.i.i.i25 = icmp eq ptr %13, null
  br i1 %cmp.not.i.i.i25, label %cond.false.i.i.i30, label %_ZNK8QuantLib16CoxIngersollRoss1kEv.exit32, !prof !71

cond.false.i.i.i30:                               ; preds = %_ZNK8QuantLib16CoxIngersollRoss1kEv.exit
  tail call void @_ZN5boost16assertion_failedEPKcS1_S1_l(ptr noundef nonnull @.str.10, ptr noundef nonnull @__PRETTY_FUNCTION__._ZNK5boost10shared_ptrIN8QuantLib9Parameter4ImplEEptEv, ptr noundef nonnull @.str.11, i64 noundef 784)
  %.pre.i.i.i31 = load ptr, ptr %12, align 8, !tbaa !61
  br label %_ZNK8QuantLib16CoxIngersollRoss1kEv.exit32

_ZNK8QuantLib16CoxIngersollRoss1kEv.exit32:       ; preds = %_ZNK8QuantLib16CoxIngersollRoss1kEv.exit, %cond.false.i.i.i30
  %14 = phi ptr [ %13, %_ZNK8QuantLib16CoxIngersollRoss1kEv.exit ], [ %.pre.i.i.i31, %cond.false.i.i.i30 ]
  %params_.i.i26 = getelementptr inbounds nuw i8, ptr %12, i64 16
  %vtable.i.i27 = load ptr, ptr %14, align 8, !tbaa !14
  %vfn.i.i28 = getelementptr inbounds i8, ptr %vtable.i.i27, i64 16
  %15 = load ptr, ptr %vfn.i.i28, align 8
  %call2.i.i29 = tail call noundef double %15(ptr noundef nonnull align 8 dereferenceable(8) %14, ptr noundef nonnull align 8 dereferenceable(16) %params_.i.i26, double noundef 0.000000e+00)
  %mul6 = fmul double %mul, 2.000000e+00
  %16 = tail call double @llvm.fmuladd.f64(double %call2.i.i21, double %call2.i.i29, double %mul6)
  %call7 = tail call double @sqrt(double noundef %16) #26, !tbaa !87
  %mul8 = fmul double %call7, 2.000000e+00
  %17 = load ptr, ptr %k_.i, align 8, !tbaa !65
  %18 = load ptr, ptr %17, align 8, !tbaa !61
  %cmp.not.i.i.i34 = icmp eq ptr %18, null
  br i1 %cmp.not.i.i.i34, label %cond.false.i.i.i39, label %_ZNK8QuantLib16CoxIngersollRoss1kEv.exit41, !prof !71

cond.false.i.i.i39:                               ; preds = %_ZNK8QuantLib16CoxIngersollRoss1kEv.exit32
  tail call void @_ZN5boost16assertion_failedEPKcS1_S1_l(ptr noundef nonnull @.str.10, ptr noundef nonnull @__PRETTY_FUNCTION__._ZNK5boost10shared_ptrIN8QuantLib9Parameter4ImplEEptEv, ptr noundef nonnull @.str.11, i64 noundef 784)
  %.pre.i.i.i40 = load ptr, ptr %17, align 8, !tbaa !61
  br label %_ZNK8QuantLib16CoxIngersollRoss1kEv.exit41

_ZNK8QuantLib16CoxIngersollRoss1kEv.exit41:       ; preds = %_ZNK8QuantLib16CoxIngersollRoss1kEv.exit32, %cond.false.i.i.i39
  %19 = phi ptr [ %18, %_ZNK8QuantLib16CoxIngersollRoss1kEv.exit32 ], [ %.pre.i.i.i40, %cond.false.i.i.i39 ]
  %params_.i.i35 = getelementptr inbounds nuw i8, ptr %17, i64 16
  %vtable.i.i36 = load ptr, ptr %19, align 8, !tbaa !14
  %vfn.i.i37 = getelementptr inbounds i8, ptr %vtable.i.i36, i64 16
  %20 = load ptr, ptr %vfn.i.i37, align 8
  %call2.i.i38 = tail call noundef double %20(ptr noundef nonnull align 8 dereferenceable(8) %19, ptr noundef nonnull align 8 dereferenceable(16) %params_.i.i35, double noundef 0.000000e+00)
  %add = fadd double %call7, %call2.i.i38
  %mul10 = fmul double %add, 5.000000e-01
  %sub = fsub double %T, %t
  %mul11 = fmul double %sub, %mul10
  %call12 = tail call double @exp(double noundef %mul11) #26, !tbaa !87
  %mul13 = fmul double %mul8, %call12
  %21 = load ptr, ptr %k_.i, align 8, !tbaa !65
  %22 = load ptr, ptr %21, align 8, !tbaa !61
  %cmp.not.i.i.i43 = icmp eq ptr %22, null
  br i1 %cmp.not.i.i.i43, label %cond.false.i.i.i48, label %_ZNK8QuantLib16CoxIngersollRoss1kEv.exit50, !prof !71

cond.false.i.i.i48:                               ; preds = %_ZNK8QuantLib16CoxIngersollRoss1kEv.exit41
  tail call void @_ZN5boost16assertion_failedEPKcS1_S1_l(ptr noundef nonnull @.str.10, ptr noundef nonnull @__PRETTY_FUNCTION__._ZNK5boost10shared_ptrIN8QuantLib9Parameter4ImplEEptEv, ptr noundef nonnull @.str.11, i64 noundef 784)
  %.pre.i.i.i49 = load ptr, ptr %21, align 8, !tbaa !61
  br label %_ZNK8QuantLib16CoxIngersollRoss1kEv.exit50

_ZNK8QuantLib16CoxIngersollRoss1kEv.exit50:       ; preds = %_ZNK8QuantLib16CoxIngersollRoss1kEv.exit41, %cond.false.i.i.i48
  %23 = phi ptr [ %22, %_ZNK8QuantLib16CoxIngersollRoss1kEv.exit41 ], [ %.pre.i.i.i49, %cond.false.i.i.i48 ]
  %params_.i.i44 = getelementptr inbounds nuw i8, ptr %21, i64 16
  %vtable.i.i45 = load ptr, ptr %23, align 8, !tbaa !14
  %vfn.i.i46 = getelementptr inbounds i8, ptr %vtable.i.i45, i64 16
  %24 = load ptr, ptr %vfn.i.i46, align 8
  %call2.i.i47 = tail call noundef double %24(ptr noundef nonnull align 8 dereferenceable(8) %23, ptr noundef nonnull align 8 dereferenceable(16) %params_.i.i44, double noundef 0.000000e+00)
  %add16 = fadd double %call7, %call2.i.i47
  %mul18 = fmul double %sub, %call7
  %call19 = tail call double @exp(double noundef %mul18) #26, !tbaa !87
  %sub20 = fadd double %call19, -1.000000e+00
  %mul21 = fmul double %add16, %sub20
  %25 = tail call double @llvm.fmuladd.f64(double %call7, double 2.000000e+00, double %mul21)
  %div = fdiv double %mul13, %25
  %call22 = tail call double @log(double noundef %div) #26, !tbaa !87
  %26 = load ptr, ptr %k_.i, align 8, !tbaa !65
  %27 = load ptr, ptr %26, align 8, !tbaa !61
  %cmp.not.i.i.i52 = icmp eq ptr %27, null
  br i1 %cmp.not.i.i.i52, label %cond.false.i.i.i57, label %_ZNK8QuantLib16CoxIngersollRoss1kEv.exit59, !prof !71

cond.false.i.i.i57:                               ; preds = %_ZNK8QuantLib16CoxIngersollRoss1kEv.exit50
  tail call void @_ZN5boost16assertion_failedEPKcS1_S1_l(ptr noundef nonnull @.str.10, ptr noundef nonnull @__PRETTY_FUNCTION__._ZNK5boost10shared_ptrIN8QuantLib9Parameter4ImplEEptEv, ptr noundef nonnull @.str.11, i64 noundef 784)
  %.pre.i.i.i58 = load ptr, ptr %26, align 8, !tbaa !61
  br label %_ZNK8QuantLib16CoxIngersollRoss1kEv.exit59

_ZNK8QuantLib16CoxIngersollRoss1kEv.exit59:       ; preds = %_ZNK8QuantLib16CoxIngersollRoss1kEv.exit50, %cond.false.i.i.i57
  %28 = phi ptr [ %27, %_ZNK8QuantLib16CoxIngersollRoss1kEv.exit50 ], [ %.pre.i.i.i58, %cond.false.i.i.i57 ]
  %params_.i.i53 = getelementptr inbounds nuw i8, ptr %26, i64 16
  %vtable.i.i54 = load ptr, ptr %28, align 8, !tbaa !14
  %vfn.i.i55 = getelementptr inbounds i8, ptr %vtable.i.i54, i64 16
  %29 = load ptr, ptr %vfn.i.i55, align 8
  %call2.i.i56 = tail call noundef double %29(ptr noundef nonnull align 8 dereferenceable(8) %28, ptr noundef nonnull align 8 dereferenceable(16) %params_.i.i53, double noundef 0.000000e+00)
  %theta_.i = getelementptr inbounds nuw i8, ptr %this, i64 88
  %30 = load ptr, ptr %theta_.i, align 8, !tbaa !41
  %31 = load ptr, ptr %30, align 8, !tbaa !61
  %cmp.not.i.i.i60 = icmp eq ptr %31, null
  br i1 %cmp.not.i.i.i60, label %cond.false.i.i.i65, label %_ZNK8QuantLib16CoxIngersollRoss5thetaEv.exit, !prof !71

cond.false.i.i.i65:                               ; preds = %_ZNK8QuantLib16CoxIngersollRoss1kEv.exit59
  tail call void @_ZN5boost16assertion_failedEPKcS1_S1_l(ptr noundef nonnull @.str.10, ptr noundef nonnull @__PRETTY_FUNCTION__._ZNK5boost10shared_ptrIN8QuantLib9Parameter4ImplEEptEv, ptr noundef nonnull @.str.11, i64 noundef 784)
  %.pre.i.i.i66 = load ptr, ptr %30, align 8, !tbaa !61
  br label %_ZNK8QuantLib16CoxIngersollRoss5thetaEv.exit

_ZNK8QuantLib16CoxIngersollRoss5thetaEv.exit:     ; preds = %_ZNK8QuantLib16CoxIngersollRoss1kEv.exit59, %cond.false.i.i.i65
  %32 = phi ptr [ %31, %_ZNK8QuantLib16CoxIngersollRoss1kEv.exit59 ], [ %.pre.i.i.i66, %cond.false.i.i.i65 ]
  %mul23 = fmul double %call22, 2.000000e+00
  %mul25 = fmul double %mul23, %call2.i.i56
  %params_.i.i61 = getelementptr inbounds nuw i8, ptr %30, i64 16
  %vtable.i.i62 = load ptr, ptr %32, align 8, !tbaa !14
  %vfn.i.i63 = getelementptr inbounds i8, ptr %vtable.i.i62, i64 16
  %33 = load ptr, ptr %vfn.i.i63, align 8
  %call2.i.i64 = tail call noundef double %33(ptr noundef nonnull align 8 dereferenceable(8) %32, ptr noundef nonnull align 8 dereferenceable(16) %params_.i.i61, double noundef 0.000000e+00)
  %mul27 = fmul double %mul25, %call2.i.i64
  %div28 = fdiv double %mul27, %mul
  %call29 = tail call double @exp(double noundef %div28) #26, !tbaa !87
  ret double %call29
}